; Function Attrs: mustprogress nounwind uwtable
define void @_ZN19GeometryStateDialogD2Ev(ptr noundef nonnull align 8 dereferenceable(64) %0) unnamed_addr #0 align 2 personality ptr @__gxx_personality_v0 {
  store ptr getelementptr inbounds ({ [59 x ptr], [10 x ptr] }, ptr @_ZTV19GeometryStateDialog, i64 0, i32 0, i64 2), ptr %0, align 8
  %2 = getelementptr inbounds i8, ptr %0, i64 16
  store ptr getelementptr inbounds ({ [59 x ptr], [10 x ptr] }, ptr @_ZTV19GeometryStateDialog, i64 0, i32 1, i64 2), ptr %2, align 8
  invoke void @_ZN19GeometryStateDialog18saveWindowGeometryEv(ptr noundef nonnull align 8 dereferenceable(64) %0)
          to label %3 unwind label %10

3:                                                ; preds = %1
  invoke void @_ZN19GeometryStateDialog17saveSplitterStateEPK9QSplitter(ptr noundef nonnull align 8 dereferenceable(64) %0, ptr noundef null)
          to label %4 unwind label %10

4:                                                ; preds = %3
  %5 = getelementptr inbounds i8, ptr %0, i64 40
  %6 = load ptr, ptr %5, align 8
  %.not.i.i.i = icmp eq ptr %6, null
  br i1 %.not.i.i.i, label %_ZN7QStringD2Ev.exit, label %_ZN17QArrayDataPointerIDsE5derefEv.exit.i.i

_ZN17QArrayDataPointerIDsE5derefEv.exit.i.i:      ; preds = %4
  %7 = atomicrmw sub ptr %6, i32 1 seq_cst, align 4
  %.not.i.i = icmp eq i32 %7, 1
  br i1 %.not.i.i, label %8, label %_ZN7QStringD2Ev.exit

8:                                                ; preds = %_ZN17QArrayDataPointerIDsE5derefEv.exit.i.i
  %9 = load ptr, ptr %5, align 8
  tail call void @_ZN10QArrayData10deallocateEPS_xx(ptr noundef %9, i64 noundef 2, i64 noundef 8) #9
  br label %_ZN7QStringD2Ev.exit

_ZN7QStringD2Ev.exit:                             ; preds = %4, %_ZN17QArrayDataPointerIDsE5derefEv.exit.i.i, %8
  tail call void @_ZN7QDialogD2Ev(ptr noundef nonnull align 8 dereferenceable(40) %0) #9
  ret void

10:                                               ; preds = %3, %1
  %11 = landingpad { ptr, i32 }
          catch ptr null
  %12 = extractvalue { ptr, i32 } %11, 0
  tail call void @__clang_call_terminate(ptr %12) #10
  unreachable
}